target datalayout = "e-m:e-p270:32:32-p271:32:32-p272:64:64-i64:64-i128:128-f80:128-n8:16:32:64-S128"
target triple = "x86_64-pc-linux-gnu"

@hf_smpp_system_id = internal global i32 0, align 4
@hf_smpp_password = internal global i32 0, align 4

; Function Attrs: null_pointer_is_valid sspstrong uwtable
define internal void @smpp_handle_string(ptr noundef %0, ptr noundef %1, i32 noundef %2, ptr noundef %3) #0 {
  %5 = alloca ptr, align 8
  %6 = alloca ptr, align 8
  %7 = alloca i32, align 4
  %8 = alloca ptr, align 8
  %9 = alloca i32, align 4
  store ptr %0, ptr %5, align 8
  store ptr %1, ptr %6, align 8
  store i32 %2, ptr %7, align 4
  store ptr %3, ptr %8, align 8
  call void @llvm.lifetime.start.p0(i64 4, ptr %9) #10
  %10 = load ptr, ptr %6, align 8
  %11 = load ptr, ptr %8, align 8
  %12 = load i32, ptr %11, align 4
  %13 = call i32 @tvb_strsize(ptr noundef %10, i32 noundef %12)
  store i32 %13, ptr %9, align 4
  %14 = load i32, ptr %9, align 4
  %15 = icmp ugt i32 %14, 1
  br i1 %15, label %16, label %24

16:                                               ; preds = %4
  %17 = load ptr, ptr %5, align 8
  %18 = load i32, ptr %7, align 4
  %19 = load ptr, ptr %6, align 8
  %20 = load ptr, ptr %8, align 8
  %21 = load i32, ptr %20, align 4
  %22 = load i32, ptr %9, align 4
  %23 = call ptr @proto_tree_add_item(ptr noundef %17, i32 noundef %18, ptr noundef %19, i32 noundef %21, i32 noundef %22, i32 noundef 0)
  br label %24

24:                                               ; preds = %16, %4
  %25 = load i32, ptr %9, align 4
  %26 = load ptr, ptr %8, align 8
  %27 = load i32, ptr %26, align 4
  %28 = add i32 %27, %25
  store i32 %28, ptr %26, align 4
  call void @llvm.lifetime.end.p0(i64 4, ptr %9) #10
  ret void
}

; Function Attrs: null_pointer_is_valid sspstrong uwtable
define internal void @outbind(ptr noundef %0, ptr noundef %1, i32 noundef %2) #0 {
  %4 = alloca ptr, align 8
  %5 = alloca ptr, align 8
  %6 = alloca i32, align 4
  store ptr %0, ptr %4, align 8
  store ptr %1, ptr %5, align 8
  store i32 %2, ptr %6, align 4
  %7 = load ptr, ptr %4, align 8
  %8 = load ptr, ptr %5, align 8
  %9 = load i32, ptr @hf_smpp_system_id, align 4
  call void @smpp_handle_string(ptr noundef %7, ptr noundef %8, i32 noundef %9, ptr noundef %6)
  %10 = load ptr, ptr %4, align 8
  %11 = load ptr, ptr %5, align 8
  %12 = load i32, ptr @hf_smpp_password, align 4
  call void @smpp_handle_string(ptr noundef %10, ptr noundef %11, i32 noundef %12, ptr noundef %6)
  ret void
}