; Function Attrs: null_pointer_is_valid sspstrong uwtable
define internal fastcc void @outbind(ptr noundef %0, ptr noundef %1) unnamed_addr #0 {
  %3 = load i32, ptr @hf_smpp_system_id, align 4
  %4 = tail call i32 @tvb_strsize(ptr noundef %1, i32 noundef 16)
  %5 = icmp ugt i32 %4, 1
  br i1 %5, label %6, label %smpp_handle_string.exit

6:                                                ; preds = %2
  %7 = tail call ptr @proto_tree_add_item(ptr noundef %0, i32 noundef %3, ptr noundef %1, i32 noundef 16, i32 noundef %4, i32 noundef 0)
  br label %smpp_handle_string.exit

smpp_handle_string.exit:                          ; preds = %2, %6
  %8 = add i32 %4, 16
  %9 = load i32, ptr @hf_smpp_password, align 4
  %10 = tail call i32 @tvb_strsize(ptr noundef %1, i32 noundef %8)
  %11 = icmp ugt i32 %10, 1
  br i1 %11, label %12, label %smpp_handle_string.exit4

12:                                               ; preds = %smpp_handle_string.exit
  %13 = tail call ptr @proto_tree_add_item(ptr noundef %0, i32 noundef %9, ptr noundef %1, i32 noundef %8, i32 noundef %10, i32 noundef 0)
  br label %smpp_handle_string.exit4

smpp_handle_string.exit4:                         ; preds = %smpp_handle_string.exit, %12
  ret void
}